target datalayout = "e-m:e-p270:32:32-p271:32:32-p272:64:64-i64:64-i128:128-f80:128-n8:16:32:64-S128"
target triple = "x86_64-pc-linux-gnu"

%struct.Bmcg_Man_t_ = type { ptr, ptr, ptr, ptr, %struct.Vec_Ptr_t_, %struct.Vec_Int_t_, %struct.Vec_Int_t_, [100 x ptr], i32, i32, i32, i32, i64, i64, i64, i64, i64 }
%struct.Vec_Ptr_t_ = type { i32, i32, ptr }
%struct.Vec_Int_t_ = type { i32, i32, ptr }
%struct.Gia_Man_t_ = type { ptr, ptr, i32, i32, i32, i32, ptr, ptr, i32, i32, i32, ptr, ptr, %struct.Vec_Int_t_, %struct.Vec_Int_t_, i32, i32, i32, %struct.Vec_Int_t_, ptr, ptr, ptr, i32, i32, i32, i32, ptr, ptr, ptr, ptr, ptr, i32, i32, ptr, i32, ptr, ptr, ptr, ptr, ptr, ptr, ptr, ptr, ptr, ptr, ptr, ptr, ptr, ptr, ptr, ptr, ptr, ptr, %struct.Vec_Int_t_, %struct.Vec_Int_t_, ptr, ptr, ptr, ptr, ptr, ptr, ptr, ptr, ptr, ptr, ptr, ptr, ptr, ptr, ptr, ptr, ptr, ptr, ptr, ptr, ptr, i32, float, float, ptr, ptr, i32, ptr, ptr, ptr, ptr, ptr, ptr, ptr, ptr, ptr, ptr, ptr, ptr, ptr, ptr, ptr, i64, i64, ptr, ptr, i32, i32, i32, i32, i32, i32, i32, i32, i32, i32, i32, i32, ptr, ptr, ptr, ptr, ptr, ptr, ptr, ptr, i32, i32, i32, ptr, i32, i32, ptr, ptr, ptr, ptr, ptr, ptr, i32, i32, ptr, %struct.Vec_Int_t_, %struct.Vec_Int_t_, %struct.Vec_Int_t_, ptr, ptr, ptr, i32, i32, i32, i32, ptr, ptr, ptr, ptr, ptr }
%struct.Gia_Obj_t_ = type <{ i64, i32 }>
%struct.Cnf_Dat_t_ = type { ptr, i32, i32, i32, ptr, ptr, ptr, ptr, ptr, ptr }
%struct.timespec = type { i64, i64 }

; Function Attrs: inlinehint nounwind uwtable
define internal i32 @Abc_Var2Lit(i32 noundef %0, i32 noundef %1) #3 {
  %3 = alloca i32, align 4
  %4 = alloca i32, align 4
  store i32 %0, ptr %3, align 4, !tbaa !12
  store i32 %1, ptr %4, align 4, !tbaa !12
  %5 = load i32, ptr %3, align 4, !tbaa !12
  %6 = load i32, ptr %3, align 4, !tbaa !12
  %7 = add nsw i32 %5, %6
  %8 = load i32, ptr %4, align 4, !tbaa !12
  %9 = add nsw i32 %7, %8
  ret i32 %9
}

; Function Attrs: inlinehint nounwind uwtable
define internal i32 @Abc_LitIsCompl(i32 noundef %0) #3 {
  %2 = alloca i32, align 4
  store i32 %0, ptr %2, align 4, !tbaa !12
  %3 = load i32, ptr %2, align 4, !tbaa !12
  %4 = and i32 %3, 1
  ret i32 %4
}

; Function Attrs: inlinehint nounwind uwtable
define internal i32 @Abc_Lit2Var(i32 noundef %0) #3 {
  %2 = alloca i32, align 4
  store i32 %0, ptr %2, align 4, !tbaa !12
  %3 = load i32, ptr %2, align 4, !tbaa !12
  %4 = ashr i32 %3, 1
  ret i32 %4
}

; Function Attrs: inlinehint nounwind uwtable
define internal i32 @Abc_Lit2LitV(ptr noundef %0, i32 noundef %1) #3 {
  %3 = alloca ptr, align 8
  %4 = alloca i32, align 4
  store ptr %0, ptr %3, align 8, !tbaa !57
  store i32 %1, ptr %4, align 4, !tbaa !12
  %5 = load ptr, ptr %3, align 8, !tbaa !57
  %6 = load i32, ptr %4, align 4, !tbaa !12
  %7 = call i32 @Abc_Lit2Var(i32 noundef %6)
  %8 = sext i32 %7 to i64
  %9 = getelementptr inbounds i32, ptr %5, i64 %8
  %10 = load i32, ptr %9, align 4, !tbaa !12
  %11 = load i32, ptr %4, align 4, !tbaa !12
  %12 = call i32 @Abc_LitIsCompl(i32 noundef %11)
  %13 = call i32 @Abc_Var2Lit(i32 noundef %10, i32 noundef %12)
  ret i32 %13
}

; Function Attrs: inlinehint nounwind uwtable
define internal void @Vec_IntWriteEntry(ptr noundef %0, i32 noundef %1, i32 noundef %2) #3 {
  %4 = alloca ptr, align 8
  %5 = alloca i32, align 4
  %6 = alloca i32, align 4
  store ptr %0, ptr %4, align 8, !tbaa !49
  store i32 %1, ptr %5, align 4, !tbaa !12
  store i32 %2, ptr %6, align 4, !tbaa !12
  %7 = load i32, ptr %6, align 4, !tbaa !12
  %8 = load ptr, ptr %4, align 8, !tbaa !49
  %9 = getelementptr inbounds nuw %struct.Vec_Int_t_, ptr %8, i32 0, i32 2
  %10 = load ptr, ptr %9, align 8, !tbaa !51
  %11 = load i32, ptr %5, align 4, !tbaa !12
  %12 = sext i32 %11 to i64
  %13 = getelementptr inbounds i32, ptr %10, i64 %12
  store i32 %7, ptr %13, align 4, !tbaa !12
  ret void
}

; Function Attrs: inlinehint nounwind uwtable
define internal i32 @Vec_IntEntry(ptr noundef %0, i32 noundef %1) #3 {
  %3 = alloca ptr, align 8
  %4 = alloca i32, align 4
  store ptr %0, ptr %3, align 8, !tbaa !49
  store i32 %1, ptr %4, align 4, !tbaa !12
  %5 = load ptr, ptr %3, align 8, !tbaa !49
  %6 = getelementptr inbounds nuw %struct.Vec_Int_t_, ptr %5, i32 0, i32 2
  %7 = load ptr, ptr %6, align 8, !tbaa !51
  %8 = load i32, ptr %4, align 4, !tbaa !12
  %9 = sext i32 %8 to i64
  %10 = getelementptr inbounds i32, ptr %7, i64 %9
  %11 = load i32, ptr %10, align 4, !tbaa !12
  ret i32 %11
}

; Function Attrs: inlinehint nounwind uwtable
define internal i32 @Gia_ObjIsCi(ptr noundef %0) #3 {
  %2 = alloca ptr, align 8
  store ptr %0, ptr %2, align 8, !tbaa !58
  %3 = load ptr, ptr %2, align 8, !tbaa !58
  %4 = load i64, ptr %3, align 4
  %5 = lshr i64 %4, 31
  %6 = and i64 %5, 1
  %7 = trunc i64 %6 to i32
  %8 = icmp ne i32 %7, 0
  br i1 %8, label %9, label %15

9:                                                ; preds = %1
  %10 = load ptr, ptr %2, align 8, !tbaa !58
  %11 = load i64, ptr %10, align 4
  %12 = and i64 %11, 536870911
  %13 = trunc i64 %12 to i32
  %14 = icmp eq i32 %13, 536870911
  br label %15

15:                                               ; preds = %9, %1
  %16 = phi i1 [ false, %1 ], [ %14, %9 ]
  %17 = zext i1 %16 to i32
  ret i32 %17
}

; Function Attrs: inlinehint nounwind uwtable
define internal ptr @Gia_ManObj(ptr noundef %0, i32 noundef %1) #3 {
  %3 = alloca ptr, align 8
  %4 = alloca i32, align 4
  store ptr %0, ptr %3, align 8, !tbaa !3
  store i32 %1, ptr %4, align 4, !tbaa !12
  %5 = load ptr, ptr %3, align 8, !tbaa !3
  %6 = getelementptr inbounds nuw %struct.Gia_Man_t_, ptr %5, i32 0, i32 6
  %7 = load ptr, ptr %6, align 8, !tbaa !59
  %8 = load i32, ptr %4, align 4, !tbaa !12
  %9 = sext i32 %8 to i64
  %10 = getelementptr inbounds %struct.Gia_Obj_t_, ptr %7, i64 %9
  ret ptr %10
}

; Function Attrs: inlinehint nounwind uwtable
define internal i32 @Gia_ManObjNum(ptr noundef %0) #3 {
  %2 = alloca ptr, align 8
  store ptr %0, ptr %2, align 8, !tbaa !3
  %3 = load ptr, ptr %2, align 8, !tbaa !3
  %4 = getelementptr inbounds nuw %struct.Gia_Man_t_, ptr %3, i32 0, i32 4
  %5 = load i32, ptr %4, align 8, !tbaa !29
  ret i32 %5
}

; Function Attrs: inlinehint nounwind uwtable
define internal i64 @Abc_Clock() #3 {
  %1 = alloca i64, align 8
  %2 = alloca %struct.timespec, align 8
  %3 = alloca i32, align 4
  %4 = alloca i64, align 8
  call void @llvm.lifetime.start.p0(i64 16, ptr %2) #13
  %5 = call i32 @clock_gettime(i32 noundef 1, ptr noundef %2) #13
  %6 = icmp slt i32 %5, 0
  br i1 %6, label %7, label %8

7:                                                ; preds = %0
  store i64 -1, ptr %1, align 8
  store i32 1, ptr %3, align 4
  br label %19

8:                                                ; preds = %0
  call void @llvm.lifetime.start.p0(i64 8, ptr %4) #13
  %9 = getelementptr inbounds nuw %struct.timespec, ptr %2, i32 0, i32 0
  %10 = load i64, ptr %9, align 8, !tbaa !121
  %11 = mul nsw i64 %10, 1000000
  store i64 %11, ptr %4, align 8, !tbaa !74
  %12 = getelementptr inbounds nuw %struct.timespec, ptr %2, i32 0, i32 1
  %13 = load i64, ptr %12, align 8, !tbaa !123
  %14 = mul nsw i64 %13, 1000000
  %15 = sdiv i64 %14, 1000000000
  %16 = load i64, ptr %4, align 8, !tbaa !74
  %17 = add nsw i64 %16, %15
  store i64 %17, ptr %4, align 8, !tbaa !74
  %18 = load i64, ptr %4, align 8, !tbaa !74
  store i64 %18, ptr %1, align 8
  store i32 1, ptr %3, align 4
  call void @llvm.lifetime.end.p0(i64 8, ptr %4) #13
  br label %19

19:                                               ; preds = %8, %7
  call void @llvm.lifetime.end.p0(i64 16, ptr %2) #13
  %20 = load i64, ptr %1, align 8
  ret i64 %20
}

; Function Attrs: nounwind uwtable
define ptr @Bmcg_ManAddNewCnf(ptr noundef %0, i32 noundef %1, i32 noundef %2) #0 {
  %4 = alloca ptr, align 8
  %5 = alloca ptr, align 8
  %6 = alloca i32, align 4
  %7 = alloca i32, align 4
  %8 = alloca i64, align 8
  %9 = alloca ptr, align 8
  %10 = alloca ptr, align 8
  %11 = alloca ptr, align 8
  %12 = alloca i32, align 4
  %13 = alloca i32, align 4
  %14 = alloca ptr, align 8
  %15 = alloca i32, align 4
  store ptr %0, ptr %5, align 8, !tbaa !10
  store i32 %1, ptr %6, align 4, !tbaa !12
  store i32 %2, ptr %7, align 4, !tbaa !12
  call void @llvm.lifetime.start.p0(i64 8, ptr %8) #13
  %16 = call i64 @Abc_Clock()
  store i64 %16, ptr %8, align 8, !tbaa !74
  call void @llvm.lifetime.start.p0(i64 8, ptr %9) #13
  %17 = load ptr, ptr %5, align 8, !tbaa !10
  %18 = load i32, ptr %6, align 4, !tbaa !12
  %19 = load i32, ptr %7, align 4, !tbaa !12
  %20 = call ptr @Bmcg_ManUnfold(ptr noundef %17, i32 noundef %18, i32 noundef %19)
  store ptr %20, ptr %9, align 8, !tbaa !3
  call void @llvm.lifetime.start.p0(i64 8, ptr %10) #13
  call void @llvm.lifetime.start.p0(i64 8, ptr %11) #13
  call void @llvm.lifetime.start.p0(i64 4, ptr %12) #13
  call void @llvm.lifetime.start.p0(i64 4, ptr %13) #13
  call void @llvm.lifetime.start.p0(i64 8, ptr %14) #13
  %21 = call i64 @Abc_Clock()
  %22 = load i64, ptr %8, align 8, !tbaa !74
  %23 = sub nsw i64 %21, %22
  %24 = load ptr, ptr %5, align 8, !tbaa !10
  %25 = getelementptr inbounds nuw %struct.Bmcg_Man_t_, ptr %24, i32 0, i32 12
  %26 = load i64, ptr %25, align 8, !tbaa !75
  %27 = add nsw i64 %26, %23
  store i64 %27, ptr %25, align 8, !tbaa !75
  %28 = load ptr, ptr %9, align 8, !tbaa !3
  %29 = icmp eq ptr %28, null
  br i1 %29, label %30, label %31

30:                                               ; preds = %3
  store ptr null, ptr %4, align 8
  store i32 1, ptr %15, align 4
  br label %147

31:                                               ; preds = %3
  %32 = call i64 @Abc_Clock()
  store i64 %32, ptr %8, align 8, !tbaa !74
  %33 = load ptr, ptr %9, align 8, !tbaa !3
  %34 = call ptr @Mf_ManGenerateCnf(ptr noundef %33, i32 noundef 8, i32 noundef 1, i32 noundef 0, i32 noundef 0, i32 noundef 0)
  store ptr %34, ptr %10, align 8, !tbaa !76
  %35 = load ptr, ptr %9, align 8, !tbaa !3
  %36 = call i32 @Gia_ManObjNum(ptr noundef %35)
  %37 = sext i32 %36 to i64
  %38 = mul i64 4, %37
  %39 = call noalias ptr @malloc(i64 noundef %38) #16
  %40 = load ptr, ptr %9, align 8, !tbaa !3
  %41 = call i32 @Gia_ManObjNum(ptr noundef %40)
  %42 = sext i32 %41 to i64
  %43 = mul i64 4, %42
  call void @llvm.memset.p0.i64(ptr align 1 %39, i8 -1, i64 %43, i1 false)
  store ptr %39, ptr %14, align 8, !tbaa !57
  %44 = load ptr, ptr %14, align 8, !tbaa !57
  %45 = getelementptr inbounds i32, ptr %44, i64 0
  store i32 0, ptr %45, align 4, !tbaa !12
  store i32 1, ptr %12, align 4, !tbaa !12
  br label %46

46:                                               ; preds = %98, %31
  %47 = load i32, ptr %12, align 4, !tbaa !12
  %48 = load ptr, ptr %9, align 8, !tbaa !3
  %49 = getelementptr inbounds nuw %struct.Gia_Man_t_, ptr %48, i32 0, i32 4
  %50 = load i32, ptr %49, align 8, !tbaa !29
  %51 = icmp slt i32 %47, %50
  br i1 %51, label %52, label %57

52:                                               ; preds = %46
  %53 = load ptr, ptr %9, align 8, !tbaa !3
  %54 = load i32, ptr %12, align 4, !tbaa !12
  %55 = call ptr @Gia_ManObj(ptr noundef %53, i32 noundef %54)
  store ptr %55, ptr %11, align 8, !tbaa !58
  %56 = icmp ne ptr %55, null
  br label %57

57:                                               ; preds = %52, %46
  %58 = phi i1 [ false, %46 ], [ %56, %52 ]
  br i1 %58, label %59, label %101

59:                                               ; preds = %57
  %60 = load ptr, ptr %10, align 8, !tbaa !76
  %61 = getelementptr inbounds nuw %struct.Cnf_Dat_t_, ptr %60, i32 0, i32 7
  %62 = load ptr, ptr %61, align 8, !tbaa !78
  %63 = load i32, ptr %12, align 4, !tbaa !12
  %64 = sext i32 %63 to i64
  %65 = getelementptr inbounds i32, ptr %62, i64 %64
  %66 = load i32, ptr %65, align 4, !tbaa !12
  %67 = icmp sle i32 %66, 0
  br i1 %67, label %68, label %73

68:                                               ; preds = %59
  %69 = load ptr, ptr %11, align 8, !tbaa !58
  %70 = call i32 @Gia_ObjIsCi(ptr noundef %69)
  %71 = icmp ne i32 %70, 0
  br i1 %71, label %73, label %72

72:                                               ; preds = %68
  br label %98

73:                                               ; preds = %68, %59
  %74 = load ptr, ptr %5, align 8, !tbaa !10
  %75 = getelementptr inbounds nuw %struct.Bmcg_Man_t_, ptr %74, i32 0, i32 5
  %76 = load ptr, ptr %11, align 8, !tbaa !58
  %77 = getelementptr inbounds nuw %struct.Gia_Obj_t_, ptr %76, i32 0, i32 1
  %78 = load i32, ptr %77, align 4, !tbaa !60
  %79 = call i32 @Vec_IntEntry(ptr noundef %75, i32 noundef %78)
  store i32 %79, ptr %13, align 4, !tbaa !12
  %80 = load i32, ptr %13, align 4, !tbaa !12
  %81 = icmp eq i32 %80, -1
  br i1 %81, label %82, label %92

82:                                               ; preds = %73
  %83 = load ptr, ptr %5, align 8, !tbaa !10
  %84 = getelementptr inbounds nuw %struct.Bmcg_Man_t_, ptr %83, i32 0, i32 5
  %85 = load ptr, ptr %11, align 8, !tbaa !58
  %86 = getelementptr inbounds nuw %struct.Gia_Obj_t_, ptr %85, i32 0, i32 1
  %87 = load i32, ptr %86, align 4, !tbaa !60
  %88 = load ptr, ptr %5, align 8, !tbaa !10
  %89 = getelementptr inbounds nuw %struct.Bmcg_Man_t_, ptr %88, i32 0, i32 8
  %90 = load i32, ptr %89, align 8, !tbaa !28
  %91 = add nsw i32 %90, 1
  store i32 %91, ptr %89, align 8, !tbaa !28
  store i32 %90, ptr %13, align 4, !tbaa !12
  call void @Vec_IntWriteEntry(ptr noundef %84, i32 noundef %87, i32 noundef %90)
  br label %92

92:                                               ; preds = %82, %73
  %93 = load i32, ptr %13, align 4, !tbaa !12
  %94 = load ptr, ptr %14, align 8, !tbaa !57
  %95 = load i32, ptr %12, align 4, !tbaa !12
  %96 = sext i32 %95 to i64
  %97 = getelementptr inbounds i32, ptr %94, i64 %96
  store i32 %93, ptr %97, align 4, !tbaa !12
  br label %98

98:                                               ; preds = %92, %72
  %99 = load i32, ptr %12, align 4, !tbaa !12
  %100 = add nsw i32 %99, 1
  store i32 %100, ptr %12, align 4, !tbaa !12
  br label %46, !llvm.loop !82

101:                                              ; preds = %57
  %102 = load ptr, ptr %9, align 8, !tbaa !3
  call void @Gia_ManStop(ptr noundef %102)
  store i32 0, ptr %12, align 4, !tbaa !12
  br label %103

103:                                              ; preds = %129, %101
  %104 = load i32, ptr %12, align 4, !tbaa !12
  %105 = load ptr, ptr %10, align 8, !tbaa !76
  %106 = getelementptr inbounds nuw %struct.Cnf_Dat_t_, ptr %105, i32 0, i32 2
  %107 = load i32, ptr %106, align 4, !tbaa !83
  %108 = icmp slt i32 %104, %107
  br i1 %108, label %109, label %132

109:                                              ; preds = %103
  %110 = load ptr, ptr %14, align 8, !tbaa !57
  %111 = load ptr, ptr %10, align 8, !tbaa !76
  %112 = getelementptr inbounds nuw %struct.Cnf_Dat_t_, ptr %111, i32 0, i32 4
  %113 = load ptr, ptr %112, align 8, !tbaa !84
  %114 = getelementptr inbounds ptr, ptr %113, i64 0
  %115 = load ptr, ptr %114, align 8, !tbaa !57
  %116 = load i32, ptr %12, align 4, !tbaa !12
  %117 = sext i32 %116 to i64
  %118 = getelementptr inbounds i32, ptr %115, i64 %117
  %119 = load i32, ptr %118, align 4, !tbaa !12
  %120 = call i32 @Abc_Lit2LitV(ptr noundef %110, i32 noundef %119)
  %121 = load ptr, ptr %10, align 8, !tbaa !76
  %122 = getelementptr inbounds nuw %struct.Cnf_Dat_t_, ptr %121, i32 0, i32 4
  %123 = load ptr, ptr %122, align 8, !tbaa !84
  %124 = getelementptr inbounds ptr, ptr %123, i64 0
  %125 = load ptr, ptr %124, align 8, !tbaa !57
  %126 = load i32, ptr %12, align 4, !tbaa !12
  %127 = sext i32 %126 to i64
  %128 = getelementptr inbounds i32, ptr %125, i64 %127
  store i32 %120, ptr %128, align 4, !tbaa !12
  br label %129

129:                                              ; preds = %109
  %130 = load i32, ptr %12, align 4, !tbaa !12
  %131 = add nsw i32 %130, 1
  store i32 %131, ptr %12, align 4, !tbaa !12
  br label %103, !llvm.loop !85

132:                                              ; preds = %103
  %133 = load ptr, ptr %14, align 8, !tbaa !57
  %134 = icmp ne ptr %133, null
  br i1 %134, label %135, label %137

135:                                              ; preds = %132
  %136 = load ptr, ptr %14, align 8, !tbaa !57
  call void @free(ptr noundef %136) #13
  store ptr null, ptr %14, align 8, !tbaa !57
  br label %138

137:                                              ; preds = %132
  br label %138

138:                                              ; preds = %137, %135
  %139 = call i64 @Abc_Clock()
  %140 = load i64, ptr %8, align 8, !tbaa !74
  %141 = sub nsw i64 %139, %140
  %142 = load ptr, ptr %5, align 8, !tbaa !10
  %143 = getelementptr inbounds nuw %struct.Bmcg_Man_t_, ptr %142, i32 0, i32 13
  %144 = load i64, ptr %143, align 8, !tbaa !86
  %145 = add nsw i64 %144, %141
  store i64 %145, ptr %143, align 8, !tbaa !86
  %146 = load ptr, ptr %10, align 8, !tbaa !76
  store ptr %146, ptr %4, align 8
  store i32 1, ptr %15, align 4
  br label %147

147:                                              ; preds = %138, %30
  call void @llvm.lifetime.end.p0(i64 8, ptr %14) #13
  call void @llvm.lifetime.end.p0(i64 4, ptr %13) #13
  call void @llvm.lifetime.end.p0(i64 4, ptr %12) #13
  call void @llvm.lifetime.end.p0(i64 8, ptr %11) #13
  call void @llvm.lifetime.end.p0(i64 8, ptr %10) #13
  call void @llvm.lifetime.end.p0(i64 8, ptr %9) #13
  call void @llvm.lifetime.end.p0(i64 8, ptr %8) #13
  %148 = load ptr, ptr %4, align 8
  ret ptr %148
}